(lp0
ccollections
defaultdict
p1
(c__builtin__
list
p2
tp3
Rp4
a(dp5
S'./all_models.999/1_3.rmf3|0'
p6
I8
sS'./all_models.999/1_1.rmf3|0'
p7
I6
sS'./all_models.999/0_4.rmf3|0'
p8
I4
sS'./all_models.999/1_0.rmf3|0'
p9
I5
sS'./all_models.999/0_2.rmf3|0'
p10
I2
sS'./all_models.999/0_0.rmf3|0'
p11
I0
sS'./all_models.999/1_2.rmf3|0'
p12
I7
sS'./all_models.999/0_1.rmf3|0'
p13
I1
sS'./all_models.999/1_4.rmf3|0'
p14
I9
sS'./all_models.999/0_3.rmf3|0'
p15
I3
sa.