(cnumpy.core.multiarray
_reconstruct
p0
(cnumpy
ndarray
p1
(I0
tp2
S'b'
p3
tp4
Rp5
(I1
(I10
tp6
cnumpy
dtype
p7
(S'i4'
p8
I0
I1
tp9
Rp10
(I3
S'<'
p11
NNNI-1
I-1
I0
tp12
bI00
S'\x00\x00\x00\x00\x00\x00\x00\x00\x00\x00\x00\x00\x00\x00\x00\x00\x00\x00\x00\x00\x00\x00\x00\x00\x00\x00\x00\x00\x00\x00\x00\x00\x00\x00\x00\x00\x00\x00\x00\x00'
p13
tp14
b(lp15
S'./all_models.999/1_3.rmf3|0'
p16
aS'./all_models.999/1_1.rmf3|0'
p17
aS'./all_models.999/0_4.rmf3|0'
p18
aS'./all_models.999/1_0.rmf3|0'
p19
aS'./all_models.999/0_2.rmf3|0'
p20
aS'./all_models.999/0_0.rmf3|0'
p21
aS'./all_models.999/1_2.rmf3|0'
p22
aS'./all_models.999/0_1.rmf3|0'
p23
aS'./all_models.999/1_4.rmf3|0'
p24
aS'./all_models.999/0_3.rmf3|0'
p25
a(dp26
(I7
I3
tp27
((F0.5996045699085149
F0.550929306405707
F0.2434761140194833
F0.5269446280114478
tp28
(F46.86561154337366
F-18.568474248697
F-10.282080246245517
tp29
tp30
s(I6
I9
tp31
((F0.600212047644587
F0.5871248701992439
F0.2443932035818389
F0.4850792169314399
tp32
(F39.80750991123116
F-17.014871255525698
F-16.20318172095942
tp33
tp34
s(I0
I7
tp35
((F0.6351967511909563
F0.5590313921549461
F0.24306281701066598
F0.4742672841854018
tp36
(F44.84971039524047
F-19.977744834926327
F-6.993720209606252
tp37
tp38
s(I1
I6
tp39
((F0.9999164184331297
F-0.0017917435524771837
F0.011818269174046866
F0.0049268972623767344
tp40
(F0.8366898417179485
F0.3444250385688008
F2.147839706287919
tp41
tp42
s(I3
I7
tp43
((F0.5996045699085149
F0.550929306405707
F0.2434761140194833
F0.5269446280114478
tp44
(F46.86561154337366
F-18.568474248697
F-10.282080246245517
tp45
tp46
s(I2
I5
tp47
((F0.3615878060410269
F0.9227141591241843
F-0.0545364286055102
F-0.12197793664897935
tp48
(F22.45439162937787
F33.7909735166279
F30.616666803497594
tp49
tp50
s(I8
I5
tp51
((F0.14505280020498296
F0.9731366717510634
F-0.17463214837527616
F-0.03831861166315771
tp52
(F-20.50205857241455
F-0.5388704929590027
F51.357831874882855
tp53
tp54
s(I5
I8
tp55
((F0.14505280020498296
F0.9731366717510634
F-0.17463214837527616
F-0.03831861166315771
tp56
(F-20.50205857241455
F-0.5388704929590027
F51.357831874882855
tp57
tp58
s(I4
I0
tp59
((F0.8872989849831586
F-0.21821989431426997
F0.3166939462910232
F0.25453002446851697
tp60
(F13.853357253163434
F-2.584618592667619
F1.4119042156038404
tp61
tp62
s(I9
I0
tp63
((F0.6150637629263358
F0.5799388484917907
F0.24819823373705263
F0.4730381975218486
tp64
(F40.19377776152123
F-17.402181043879832
F-12.95931488702626
tp65
tp66
s(I6
I7
tp67
((F0.6288898697681314
F0.5697799951787761
F0.23444972710594053
F0.47421684307608325
tp68
(F43.655779506346725
F-20.111529223613843
F-10.21943109341935
tp69
tp70
s(I7
I6
tp71
((F0.6288898697681314
F0.5697799951787761
F0.23444972710594053
F0.47421684307608325
tp72
(F43.655779506346725
F-20.111529223613843
F-10.21943109341935
tp73
tp74
s(I0
I4
tp75
((F0.8872989849831586
F-0.21821989431426997
F0.3166939462910232
F0.25453002446851697
tp76
(F13.853357253163434
F-2.584618592667619
F1.4119042156038404
tp77
tp78
s(I3
I2
tp79
((F0.6045358436349876
F-0.5562754038212561
F-0.24317650942700844
F-0.515712394777291
tp80
(F3.7835637150108
F23.353098376030907
F-45.12707407344228
tp81
tp82
s(I2
I6
tp83
((F0.635347089745946
F-0.5738956665837192
F-0.23296735332698973
F-0.4611984949147201
tp84
(F0.004392092734992303
F21.864658747384176
F-43.33659585100903
tp85
tp86
s(I8
I2
tp87
((F0.6407465833798615
F-0.5643305367568209
F-0.2437449193511721
F-0.4599600802909785
tp88
(F-0.8877074376184204
F20.588568135759715
F-44.36045793190777
tp89
tp90
s(I4
I5
tp91
((F0.5007919088793658
F-0.7430942193789386
F-0.35445896023548973
F-0.2671652871077049
tp92
(F17.86730666925053
F-56.69352901406147
F16.921502128329863
tp93
tp94
s(I9
I3
tp95
((F0.5837603559704179
F0.5676217399823363
F0.24822643948088224
F0.524798096261181
tp96
(F42.310032647948915
F-16.382860435084304
F-16.13208008276114
tp97
tp98
s(I6
I0
tp99
((F0.9998821694828283
F-0.00018562279075267239
F0.01223978389196011
F0.009262849711099008
tp100
(F0.8078763005396681
F-0.06099038966734227
F3.3661382541892166
tp101
tp102
s(I7
I5
tp103
((F0.3495756178657397
F-0.9271384936857434
F0.04245323647265496
F0.12809693061472546
tp104
(F-10.267033077430636
F3.56942553224437
F48.93938575275279
tp105
tp106
s(I0
I1
tp107
((F0.9999913975091497
F0.0015512292937416242
F0.00027982149217907877
F0.0038367037035094954
tp108
(F-0.028968052740630412
F-0.3733805089829696
F1.2076091026309559
tp109
tp110
s(I3
I1
tp111
((F0.9998429703813213
F-0.008060702155856227
F0.01577271927130363
F-0.000530081691439126
tp112
(F1.1176641392915414
F0.7896010666499516
F2.496643695422728
tp113
tp114
s(I7
I8
tp115
((F0.6348590256871983
F-0.5602756637346296
F-0.2444830178425444
F-0.4725179913154881
tp116
(F-0.29338066879722646
F20.763715374996316
F-44.94944125904735
tp117
tp118
s(I2
I1
tp119
((F0.6371982528189409
F0.5633580112215891
F0.2429785110517262
F0.46644140142576446
tp120
(F44.31745309639516
F-19.981968037743574
F-8.674209653742974
tp121
tp122
s(I8
I9
tp123
((F0.6157433336207969
F0.5831970543806013
F0.24990430862527033
F0.467214275674303
tp124
(F39.66814506401012
F-17.265889825945507
F-14.09552417191216
tp125
tp126
s(I9
I4
tp127
((F0.6799432693490671
F0.28706865404072346
F0.0860711119801801
F0.6692238056260735
tp128
(F31.381729135988245
F-32.806838322433144
F11.02900701905341
tp129
tp130
s(I5
I1
tp131
((F0.15363134803091966
F-0.9780592729108571
F0.13201959048549566
F0.04866513437082056
tp132
(F22.951873369179843
F-24.498935277618656
F45.69110083401924
tp133
tp134
s(I7
I2
tp135
((F0.9999895467197275
F-0.002169950740670521
F0.003979253501755042
F-0.0006027492230559622
tp136
(F0.19529685218858717
F0.44187232726691406
F0.3717136804424914
tp137
tp138
s(I1
I5
tp139
((F0.15363134803091966
F-0.9780592729108571
F0.13201959048549566
F0.04866513437082056
tp140
(F22.951873369179843
F-24.498935277618656
F45.69110083401924
tp141
tp142
s(I3
I6
tp143
((F0.9999646810178626
F0.005749609803784102
F-0.003931749089660841
F0.004703196045716605
tp144
(F-0.27673872014876366
F-0.3906398898949255
F-0.3566991978359848
tp145
tp146
s(I8
I6
tp147
((F0.9998132800953616
F-0.00381520046292003
F-0.013397833668923031
F-0.013392058966476262
tp148
(F-0.6754700383687648
F0.08410822984452482
F-2.320419783201544
tp149
tp150
s(I4
I1
tp151
((F0.8844612467963493
F-0.21862159212587848
F0.31324430665861186
F0.26797557112124765
tp152
(F14.087325312867566
F-2.9599847468399068
F0.18126827355381891
tp153
tp154
s(I9
I7
tp155
((F0.9980042333707215
F-0.009952410754328084
F0.0004761789114309155
F-0.06235601773638146
tp156
(F-4.015064180901234
F-0.12223410841076543
F-4.937163935291071
tp157
tp158
s(I6
I4
tp159
((F0.8775589917756051
F0.21456177079511993
F-0.3022736026382196
F-0.3041120379320052
tp160
(F-7.526451241069813
F12.28028637966889
F-1.7683578850766608
tp161
tp162
s(I5
I4
tp163
((F0.5007919088793658
F-0.7430942193789386
F-0.35445896023548973
F-0.2671652871077049
tp164
(F17.86730666925053
F-56.69352901406147
F16.921502128329863
tp165
tp166
s(I7
I1
tp167
((F0.631084823913504
F0.5590747397147479
F0.2442170318083211
F0.479088114874166
tp168
(F45.21284874170813
F-19.633967580488203
F-8.319295659429724
tp169
tp170
s(I0
I5
tp171
((F0.1519132443521143
F-0.9776619789105836
F0.13699206334565472
F0.04829695397596616
tp172
(F22.660787605743337
F-24.366991993315082
F47.018680371478816
tp173
tp174
s(I1
I0
tp175
((F0.9999913975091497
F0.0015512292937416242
F0.00027982149217907877
F0.0038367037035094954
tp176
(F-0.028968052740630412
F-0.3733805089829696
F1.2076091026309559
tp177
tp178
s(I0
I8
tp179
((F0.9999810410446174
F-0.003809172413808289
F-0.001174640998072708
F-0.004693396996915257
tp180
(F0.06893313414379776
F0.05746868932029958
F1.0623364750715787
tp181
tp182
s(I3
I5
tp183
((F0.15103719110990188
F-0.9805863238910879
F0.11939071046779273
F0.037203313742048376
tp184
(F21.29114474794993
F-25.39271424940076
F44.22414992288881
tp185
tp186
s(I2
I7
tp187
((F0.9999895467197275
F-0.002169950740670521
F0.003979253501755042
F-0.0006027492230559622
tp188
(F0.19529685218858717
F0.44187232726691406
F0.3717136804424914
tp189
tp190
s(I8
I3
tp191
((F0.9998201152845567
F0.0025265829059489425
F-0.017207063414925686
F-0.007567722235247768
tp192
(F-0.9269436216963882
F-0.3619145565326187
F-2.6807692150048403
tp193
tp194
s(I4
I6
tp195
((F0.8775589917756051
F0.21456177079511993
F-0.3022736026382196
F-0.3041120379320052
tp196
(F-7.526451241069813
F12.28028637966889
F-1.7683578850766608
tp197
tp198
s(I9
I2
tp199
((F0.9978605762885582
F-0.012216033484935298
F0.004806348641928263
F-0.06404637247880521
tp200
(F-3.8914521921448646
F0.3567656451810244
F-4.515849079140574
tp201
tp202
s(I6
I1
tp203
((F0.9999164184331297
F-0.0017917435524771837
F0.011818269174046866
F0.0049268972623767344
tp204
(F0.8366898417179485
F0.3444250385688008
F2.147839706287919
tp205
tp206
s(I5
I7
tp207
((F0.3495756178657397
F-0.9271384936857434
F0.04245323647265496
F0.12809693061472546
tp208
(F-10.267033077430636
F3.56942553224437
F48.93938575275279
tp209
tp210
s(I7
I4
tp211
((F0.6144636935769182
F0.2643174554267457
F0.10925996731712297
F0.7352774385049515
tp212
(F35.52571522504975
F-28.494648214679135
F18.373313419290163
tp213
tp214
s(I0
I2
tp215
((F0.6413043407037821
F0.5630852558742212
F0.24172311731793533
F0.4617723159368154
tp216
(F43.96417200412087
F-20.318948171108293
F-7.336750567257997
tp217
tp218
s(I1
I3
tp219
((F0.9998429703813213
F-0.008060702155856227
F0.01577271927130363
F-0.000530081691439126
tp220
(F1.1176641392915414
F0.7896010666499516
F2.496643695422728
tp221
tp222
s(I4
I8
tp223
((F0.8903392574275514
F0.21347849519514916
F-0.32469416412911134
F-0.23726912684348306
tp224
(F-8.319329405055376
F8.923635198775035
F-5.908673787888013
tp225
tp226
s(I3
I0
tp227
((F0.9998417997364382
F-0.006506697114262657
F0.016136452846082446
F0.0036950347778586206
tp228
(F1.0850104945842673
F0.39315373202212056
F3.713629645554157
tp229
tp230
s(I2
I8
tp231
((F0.6407465833798615
F-0.5643305367568209
F-0.2437449193511721
F-0.4599600802909785
tp232
(F-0.8877074376184204
F20.588568135759715
F-44.36045793190777
tp233
tp234
s(I9
I8
tp235
((F0.6157433336207969
F0.5831970543806013
F0.24990430862527033
F0.467214275674303
tp236
(F39.66814506401012
F-17.265889825945507
F-14.09552417191216
tp237
tp238
s(I8
I0
tp239
((F0.9999810410446174
F-0.003809172413808289
F-0.001174640998072708
F-0.004693396996915257
tp240
(F0.06893313414379776
F0.05746868932029958
F1.0623364750715787
tp241
tp242
s(I6
I2
tp243
((F0.635347089745946
F-0.5738956665837192
F-0.23296735332698973
F-0.4611984949147201
tp244
(F0.004392092734992303
F21.864658747384176
F-43.33659585100903
tp245
tp246
s(I5
I0
tp247
((F0.1519132443521143
F-0.9776619789105836
F0.13699206334565472
F0.04829695397596616
tp248
(F22.660787605743337
F-24.366991993315082
F47.018680371478816
tp249
tp250
s(I1
I4
tp251
((F0.8844612467963493
F-0.21862159212587848
F0.31324430665861186
F0.26797557112124765
tp252
(F14.087325312867566
F-2.9599847468399068
F0.18126827355381891
tp253
tp254
s(I3
I9
tp255
((F0.5837603559704179
F0.5676217399823363
F0.24822643948088224
F0.524798096261181
tp256
(F42.310032647948915
F-16.382860435084304
F-16.13208008276114
tp257
tp258
s(I2
I3
tp259
((F0.6045358436349876
F-0.5562754038212561
F-0.24317650942700844
F-0.515712394777291
tp260
(F3.7835637150108
F23.353098376030907
F-45.12707407344228
tp261
tp262
s(I1
I9
tp263
((F0.6144450768153972
F0.5780979211882324
F0.24795892384112603
F0.47621047151728557
tp264
(F40.49184975370945
F-17.241535655843812
F-14.140800359255447
tp265
tp266
s(I8
I7
tp267
((F0.6348590256871983
F-0.5602756637346296
F-0.2444830178425444
F-0.4725179913154881
tp268
(F-0.29338066879722646
F20.763715374996316
F-44.94944125904735
tp269
tp270
s(I4
I2
tp271
((F0.6034997968557431
F-0.27338896643425104
F-0.11111847204728545
F-0.7407422989116833
tp272
(F26.326306586602296
F14.61766816594763
F-38.45969385621223
tp273
tp274
s(I9
I6
tp275
((F0.600212047644587
F0.5871248701992439
F0.2443932035818389
F0.4850792169314399
tp276
(F39.80750991123116
F-17.014871255525698
F-16.20318172095942
tp277
tp278
s(I6
I5
tp279
((F0.15348437317352653
F0.9815953029934994
F-0.10478259975397462
F-0.04397516482547925
tp280
(F-22.008393125286577
F-6.168811562739778
F51.17723072800922
tp281
tp282
s(I5
I3
tp283
((F0.15103719110990188
F-0.9805863238910879
F0.11939071046779273
F0.037203313742048376
tp284
(F21.29114474794993
F-25.39271424940076
F44.22414992288881
tp285
tp286
s(I7
I0
tp287
((F0.6351967511909563
F0.5590313921549461
F0.24306281701066598
F0.4742672841854018
tp288
(F44.84971039524047
F-19.977744834926327
F-6.993720209606252
tp289
tp290
s(I6
I8
tp291
((F0.9998132800953616
F-0.00381520046292003
F-0.013397833668923031
F-0.013392058966476262
tp292
(F-0.6754700383687648
F0.08410822984452482
F-2.320419783201544
tp293
tp294
s(I0
I6
tp295
((F0.9998821694828283
F-0.00018562279075267239
F0.01223978389196011
F0.009262849711099008
tp296
(F0.8078763005396681
F-0.06099038966734227
F3.3661382541892166
tp297
tp298
s(I1
I7
tp299
((F0.631084823913504
F0.5590747397147479
F0.2442170318083211
F0.479088114874166
tp300
(F45.21284874170813
F-19.633967580488203
F-8.319295659429724
tp301
tp302
s(I0
I9
tp303
((F0.6150637629263358
F0.5799388484917907
F0.24819823373705263
F0.4730381975218486
tp304
(F40.19377776152123
F-17.402181043879832
F-12.95931488702626
tp305
tp306
s(I3
I4
tp307
((F0.8826979825806455
F-0.19360256712826948
F0.28065925695994853
F0.3234079452210352
tp308
(F13.671479639760307
F-4.91690545036562
F-2.320692781926768
tp309
tp310
s(I2
I4
tp311
((F0.6034997968557431
F-0.27338896643425104
F-0.11111847204728545
F-0.7407422989116833
tp312
(F26.326306586602296
F14.61766816594763
F-38.45969385621223
tp313
tp314
s(I8
I4
tp315
((F0.8903392574275514
F0.21347849519514916
F-0.32469416412911134
F-0.23726912684348306
tp316
(F-8.319329405055376
F8.923635198775035
F-5.908673787888013
tp317
tp318
s(I5
I9
tp319
((F0.4171899210086202
F-0.8936821804952381
F0.10853576319440196
F0.12451794321264134
tp320
(F-6.149111086330503
F3.1768631271154852
F59.0681565658449
tp321
tp322
s(I4
I7
tp323
((F0.6144636935769182
F0.2643174554267457
F0.10925996731712297
F0.7352774385049515
tp324
(F35.52571522504975
F-28.494648214679135
F18.373313419290163
tp325
tp326
s(I9
I1
tp327
((F0.6144450768153972
F0.5780979211882324
F0.24795892384112603
F0.47621047151728557
tp328
(F40.49184975370945
F-17.241535655843812
F-14.140800359255447
tp329
tp330
s(I5
I6
tp331
((F0.15348437317352653
F0.9815953029934994
F-0.10478259975397462
F-0.04397516482547925
tp332
(F-22.008393125286577
F-6.168811562739778
F51.17723072800922
tp333
tp334
s(I0
I3
tp335
((F0.9998417997364382
F-0.006506697114262657
F0.016136452846082446
F0.0036950347778586206
tp336
(F1.0850104945842673
F0.39315373202212056
F3.713629645554157
tp337
tp338
s(I1
I2
tp339
((F0.6371982528189409
F0.5633580112215891
F0.2429785110517262
F0.46644140142576446
tp340
(F44.31745309639516
F-19.981968037743574
F-8.674209653742974
tp341
tp342
s(I4
I9
tp343
((F0.6799432693490671
F0.28706865404072346
F0.0860711119801801
F0.6692238056260735
tp344
(F31.381729135988245
F-32.806838322433144
F11.02900701905341
tp345
tp346
s(I2
I9
tp347
((F0.9978605762885582
F-0.012216033484935298
F0.004806348641928263
F-0.06404637247880521
tp348
(F-3.8914521921448646
F0.3567656451810244
F-4.515849079140574
tp349
tp350
s(I8
I1
tp351
((F0.9999517979338439
F-0.005461286595908516
F-0.00144074950588726
F-0.008031214008582742
tp352
(F0.10495792976124818
F0.3922217731156761
F-0.14508371848190293
tp353
tp354
s(I6
I3
tp355
((F0.9999646810178626
F0.005749609803784102
F-0.003931749089660841
F0.004703196045716605
tp356
(F-0.27673872014876366
F-0.3906398898949255
F-0.3566991978359848
tp357
tp358
s(I7
I9
tp359
((F0.9980042333707215
F-0.009952410754328084
F0.0004761789114309155
F-0.06235601773638146
tp360
(F-4.015064180901234
F-0.12223410841076543
F-4.937163935291071
tp361
tp362
s(I3
I8
tp363
((F0.9998201152845567
F0.0025265829059489425
F-0.017207063414925686
F-0.007567722235247768
tp364
(F-0.9269436216963882
F-0.3619145565326187
F-2.6807692150048403
tp365
tp366
s(I2
I0
tp367
((F0.6413043407037821
F0.5630852558742212
F0.24172311731793533
F0.4617723159368154
tp368
(F43.96417200412087
F-20.318948171108293
F-7.336750567257997
tp369
tp370
s(I1
I8
tp371
((F0.9999517979338439
F-0.005461286595908516
F-0.00144074950588726
F-0.008031214008582742
tp372
(F0.10495792976124818
F0.3922217731156761
F-0.14508371848190293
tp373
tp374
s(I4
I3
tp375
((F0.8826979825806455
F-0.19360256712826948
F0.28065925695994853
F0.3234079452210352
tp376
(F13.671479639760307
F-4.91690545036562
F-2.320692781926768
tp377
tp378
s(I9
I5
tp379
((F0.4171899210086202
F-0.8936821804952381
F0.10853576319440196
F0.12451794321264134
tp380
(F-6.149111086330503
F3.1768631271154852
F59.0681565658449
tp381
tp382
s(I5
I2
tp383
((F0.3615878060410269
F0.9227141591241843
F-0.0545364286055102
F-0.12197793664897935
tp384
(F22.45439162937787
F33.7909735166279
F30.616666803497594
tp385
tp386
stp387
.